(lp0
S'poi'
p1
aS'to_messages'
p2
aS'deferral_payments'
p3
aS'bonus'
p4
aS'total_stock_value'
p5
aS'expenses'
p6
aS'from_poi_to_this_person'
p7
aS'ratio_to_poi'
p8
aS'from_this_person_to_poi'
p9
aS'deferred_income'
p10
aS'long_term_incentive'
p11
aS'ratio_stock_to_pay'
p12
aS'salary'
p13
aS'ratio_from_poi'
p14
aS'total_payments'
p15
aS'exercised_stock_options'
p16
aS'restricted_stock'
p17
aS'restricted_stock_deferred'
p18
aS'shared_receipt_with_poi'
p19
aS'loan_advances'
p20
aS'from_messages'
p21
aS'other'
p22
aS'ratio_cc_poi'
p23
aS'director_fees'
p24
a.